target datalayout = "e-m:e-p270:32:32-p271:32:32-p272:64:64-i64:64-i128:128-f80:128-n8:16:32:64-S128"
target triple = "x86_64-pc-linux-gnu"

%struct.RelFileLocator = type { i32, i32, i32 }
%struct.PendingRelDelete = type { %struct.RelFileLocator, i32, i8, i32, ptr }

@pendingDeletes = internal global ptr null, align 8

; Function Attrs: nounwind uwtable
define dso_local void @smgrDoPendingDeletes(i1 noundef zeroext %0) #0 {
  %2 = alloca i8, align 1
  %3 = alloca i32, align 4
  %4 = alloca ptr, align 8
  %5 = alloca ptr, align 8
  %6 = alloca ptr, align 8
  %7 = alloca i32, align 4
  %8 = alloca i32, align 4
  %9 = alloca ptr, align 8
  %10 = alloca ptr, align 8
  %11 = alloca { i64, i32 }, align 8
  %12 = alloca i32, align 4
  %13 = zext i1 %0 to i8
  store i8 %13, ptr %2, align 1
  call void @llvm.lifetime.start.p0(i64 4, ptr %3) #8
  %14 = call i32 @GetCurrentTransactionNestLevel()
  store i32 %14, ptr %3, align 4
  call void @llvm.lifetime.start.p0(i64 8, ptr %4) #8
  call void @llvm.lifetime.start.p0(i64 8, ptr %5) #8
  call void @llvm.lifetime.start.p0(i64 8, ptr %6) #8
  call void @llvm.lifetime.start.p0(i64 4, ptr %7) #8
  store i32 0, ptr %7, align 4
  call void @llvm.lifetime.start.p0(i64 4, ptr %8) #8
  store i32 0, ptr %8, align 4
  call void @llvm.lifetime.start.p0(i64 8, ptr %9) #8
  store ptr null, ptr %9, align 8
  store ptr null, ptr %5, align 8
  %15 = load ptr, ptr @pendingDeletes, align 8
  store ptr %15, ptr %4, align 8
  br label %16

16:                                               ; preds = %90, %1
  %17 = load ptr, ptr %4, align 8
  %18 = icmp ne ptr %17, null
  br i1 %18, label %19, label %92

19:                                               ; preds = %16
  %20 = load ptr, ptr %4, align 8
  %21 = getelementptr inbounds nuw %struct.PendingRelDelete, ptr %20, i32 0, i32 4
  %22 = load ptr, ptr %21, align 8
  store ptr %22, ptr %6, align 8
  %23 = load ptr, ptr %4, align 8
  %24 = getelementptr inbounds nuw %struct.PendingRelDelete, ptr %23, i32 0, i32 3
  %25 = load i32, ptr %24, align 4
  %26 = load i32, ptr %3, align 4
  %27 = icmp slt i32 %25, %26
  br i1 %27, label %28, label %30

28:                                               ; preds = %19
  %29 = load ptr, ptr %4, align 8
  store ptr %29, ptr %5, align 8
  br label %89

30:                                               ; preds = %19
  %31 = load ptr, ptr %5, align 8
  %32 = icmp ne ptr %31, null
  br i1 %32, label %33, label %37

33:                                               ; preds = %30
  %34 = load ptr, ptr %6, align 8
  %35 = load ptr, ptr %5, align 8
  %36 = getelementptr inbounds nuw %struct.PendingRelDelete, ptr %35, i32 0, i32 4
  store ptr %34, ptr %36, align 8
  br label %39

37:                                               ; preds = %30
  %38 = load ptr, ptr %6, align 8
  store ptr %38, ptr @pendingDeletes, align 8
  br label %39

39:                                               ; preds = %37, %33
  %40 = load ptr, ptr %4, align 8
  %41 = getelementptr inbounds nuw %struct.PendingRelDelete, ptr %40, i32 0, i32 2
  %42 = load i8, ptr %41, align 8, !range !4, !noundef !5
  %43 = trunc i8 %42 to i1
  %44 = zext i1 %43 to i32
  %45 = load i8, ptr %2, align 1, !range !4, !noundef !5
  %46 = trunc i8 %45 to i1
  %47 = zext i1 %46 to i32
  %48 = icmp eq i32 %44, %47
  br i1 %48, label %49, label %87

49:                                               ; preds = %39
  call void @llvm.lifetime.start.p0(i64 8, ptr %10) #8
  %50 = load ptr, ptr %4, align 8
  %51 = getelementptr inbounds nuw %struct.PendingRelDelete, ptr %50, i32 0, i32 0
  %52 = load ptr, ptr %4, align 8
  %53 = getelementptr inbounds nuw %struct.PendingRelDelete, ptr %52, i32 0, i32 1
  %54 = load i32, ptr %53, align 4
  call void @llvm.memcpy.p0.p0.i64(ptr align 8 %11, ptr align 8 %51, i64 12, i1 false)
  %55 = getelementptr inbounds nuw { i64, i32 }, ptr %11, i32 0, i32 0
  %56 = load i64, ptr %55, align 8
  %57 = getelementptr inbounds nuw { i64, i32 }, ptr %11, i32 0, i32 1
  %58 = load i32, ptr %57, align 8
  %59 = call ptr @smgropen(i64 %56, i32 %58, i32 noundef %54)
  store ptr %59, ptr %10, align 8
  %60 = load i32, ptr %8, align 4
  %61 = icmp eq i32 %60, 0
  br i1 %61, label %62, label %67

62:                                               ; preds = %49
  store i32 8, ptr %8, align 4
  %63 = load i32, ptr %8, align 4
  %64 = sext i32 %63 to i64
  %65 = mul i64 8, %64
  %66 = call ptr @palloc(i64 noundef %65)
  store ptr %66, ptr %9, align 8
  br label %80

67:                                               ; preds = %49
  %68 = load i32, ptr %8, align 4
  %69 = load i32, ptr %7, align 4
  %70 = icmp sle i32 %68, %69
  br i1 %70, label %71, label %79

71:                                               ; preds = %67
  %72 = load i32, ptr %8, align 4
  %73 = mul i32 %72, 2
  store i32 %73, ptr %8, align 4
  %74 = load ptr, ptr %9, align 8
  %75 = load i32, ptr %8, align 4
  %76 = sext i32 %75 to i64
  %77 = mul i64 8, %76
  %78 = call ptr @repalloc(ptr noundef %74, i64 noundef %77)
  store ptr %78, ptr %9, align 8
  br label %79

79:                                               ; preds = %71, %67
  br label %80

80:                                               ; preds = %79, %62
  %81 = load ptr, ptr %10, align 8
  %82 = load ptr, ptr %9, align 8
  %83 = load i32, ptr %7, align 4
  %84 = add i32 %83, 1
  store i32 %84, ptr %7, align 4
  %85 = sext i32 %83 to i64
  %86 = getelementptr inbounds ptr, ptr %82, i64 %85
  store ptr %81, ptr %86, align 8
  call void @llvm.lifetime.end.p0(i64 8, ptr %10) #8
  br label %87

87:                                               ; preds = %80, %39
  %88 = load ptr, ptr %4, align 8
  call void @pfree(ptr noundef %88)
  br label %89

89:                                               ; preds = %87, %28
  br label %90

90:                                               ; preds = %89
  %91 = load ptr, ptr %6, align 8
  store ptr %91, ptr %4, align 8
  br label %16, !llvm.loop !15

92:                                               ; preds = %16
  %93 = load i32, ptr %7, align 4
  %94 = icmp sgt i32 %93, 0
  br i1 %94, label %95, label %114

95:                                               ; preds = %92
  %96 = load ptr, ptr %9, align 8
  %97 = load i32, ptr %7, align 4
  call void @smgrdounlinkall(ptr noundef %96, i32 noundef %97, i1 noundef zeroext false)
  call void @llvm.lifetime.start.p0(i64 4, ptr %12) #8
  store i32 0, ptr %12, align 4
  br label %98

98:                                               ; preds = %109, %95
  %99 = load i32, ptr %12, align 4
  %100 = load i32, ptr %7, align 4
  %101 = icmp slt i32 %99, %100
  br i1 %101, label %103, label %102

102:                                              ; preds = %98
  call void @llvm.lifetime.end.p0(i64 4, ptr %12) #8
  br label %112

103:                                              ; preds = %98
  %104 = load ptr, ptr %9, align 8
  %105 = load i32, ptr %12, align 4
  %106 = sext i32 %105 to i64
  %107 = getelementptr inbounds ptr, ptr %104, i64 %106
  %108 = load ptr, ptr %107, align 8
  call void @smgrclose(ptr noundef %108)
  br label %109

109:                                              ; preds = %103
  %110 = load i32, ptr %12, align 4
  %111 = add i32 %110, 1
  store i32 %111, ptr %12, align 4
  br label %98, !llvm.loop !16

112:                                              ; preds = %102
  %113 = load ptr, ptr %9, align 8
  call void @pfree(ptr noundef %113)
  br label %114

114:                                              ; preds = %112, %92
  call void @llvm.lifetime.end.p0(i64 8, ptr %9) #8
  call void @llvm.lifetime.end.p0(i64 4, ptr %8) #8
  call void @llvm.lifetime.end.p0(i64 4, ptr %7) #8
  call void @llvm.lifetime.end.p0(i64 8, ptr %6) #8
  call void @llvm.lifetime.end.p0(i64 8, ptr %5) #8
  call void @llvm.lifetime.end.p0(i64 8, ptr %4) #8
  call void @llvm.lifetime.end.p0(i64 4, ptr %3) #8
  ret void
}