; Function Attrs: nounwind uwtable
define dso_local void @smgrDoPendingDeletes(i1 noundef zeroext %0) local_unnamed_addr #0 {
  %2 = tail call i32 @GetCurrentTransactionNestLevel() #8
  %3 = load ptr, ptr @pendingDeletes, align 8
  %.not46 = icmp eq ptr %3, null
  br i1 %.not46, label %._crit_edge.thread, label %.lr.ph

.lr.ph:                                           ; preds = %1
  %4 = zext i1 %0 to i8
  br label %5

5:                                                ; preds = %.lr.ph, %37
  %.03351 = phi ptr [ %3, %.lr.ph ], [ %7, %37 ]
  %.03450 = phi ptr [ null, %.lr.ph ], [ %.1, %37 ]
  %.03549 = phi i32 [ 0, %.lr.ph ], [ %.2, %37 ]
  %.03748 = phi ptr [ null, %.lr.ph ], [ %.3, %37 ]
  %.04047 = phi i32 [ 0, %.lr.ph ], [ %.343, %37 ]
  %6 = getelementptr inbounds nuw i8, ptr %.03351, i64 24
  %7 = load ptr, ptr %6, align 8
  %8 = getelementptr inbounds nuw i8, ptr %.03351, i64 20
  %9 = load i32, ptr %8, align 4
  %10 = icmp slt i32 %9, %2
  br i1 %10, label %37, label %11

11:                                               ; preds = %5
  %.not44 = icmp eq ptr %.03450, null
  br i1 %.not44, label %14, label %12

12:                                               ; preds = %11
  %13 = getelementptr inbounds nuw i8, ptr %.03450, i64 24
  store ptr %7, ptr %13, align 8
  br label %15

14:                                               ; preds = %11
  store ptr %7, ptr @pendingDeletes, align 8
  br label %15

15:                                               ; preds = %14, %12
  %16 = getelementptr inbounds nuw i8, ptr %.03351, i64 16
  %17 = load i8, ptr %16, align 8, !range !4, !noundef !5
  %18 = icmp eq i8 %17, %4
  br i1 %18, label %19, label %36

19:                                               ; preds = %15
  %20 = getelementptr inbounds nuw i8, ptr %.03351, i64 12
  %21 = load i32, ptr %20, align 4
  %.sroa.0.0.copyload = load i64, ptr %.03351, align 8
  %.sroa.2.0..sroa_idx = getelementptr inbounds nuw i8, ptr %.03351, i64 8
  %.sroa.2.0.copyload = load i32, ptr %.sroa.2.0..sroa_idx, align 8
  %22 = tail call ptr @smgropen(i64 %.sroa.0.0.copyload, i32 %.sroa.2.0.copyload, i32 noundef %21) #8
  %23 = icmp eq i32 %.04047, 0
  br i1 %23, label %24, label %26

24:                                               ; preds = %19
  %25 = tail call ptr @palloc(i64 noundef 64) #8
  br label %32

26:                                               ; preds = %19
  %.not45 = icmp sgt i32 %.04047, %.03549
  br i1 %.not45, label %32, label %27

27:                                               ; preds = %26
  %28 = shl i32 %.04047, 1
  %29 = sext i32 %28 to i64
  %30 = shl nsw i64 %29, 3
  %31 = tail call ptr @repalloc(ptr noundef %.03748, i64 noundef %30) #8
  br label %32

32:                                               ; preds = %26, %27, %24
  %.242 = phi i32 [ 8, %24 ], [ %28, %27 ], [ %.04047, %26 ]
  %.239 = phi ptr [ %25, %24 ], [ %31, %27 ], [ %.03748, %26 ]
  %33 = add i32 %.03549, 1
  %34 = sext i32 %.03549 to i64
  %35 = getelementptr inbounds ptr, ptr %.239, i64 %34
  store ptr %22, ptr %35, align 8
  br label %36

36:                                               ; preds = %32, %15
  %.141 = phi i32 [ %.242, %32 ], [ %.04047, %15 ]
  %.138 = phi ptr [ %.239, %32 ], [ %.03748, %15 ]
  %.136 = phi i32 [ %33, %32 ], [ %.03549, %15 ]
  tail call void @pfree(ptr noundef nonnull %.03351) #8
  br label %37

37:                                               ; preds = %5, %36
  %.343 = phi i32 [ %.141, %36 ], [ %.04047, %5 ]
  %.3 = phi ptr [ %.138, %36 ], [ %.03748, %5 ]
  %.2 = phi i32 [ %.136, %36 ], [ %.03549, %5 ]
  %.1 = phi ptr [ %.03450, %36 ], [ %.03351, %5 ]
  %.not = icmp eq ptr %7, null
  br i1 %.not, label %._crit_edge, label %5, !llvm.loop !15

._crit_edge:                                      ; preds = %37
  %38 = icmp sgt i32 %.2, 0
  br i1 %38, label %39, label %._crit_edge.thread

39:                                               ; preds = %._crit_edge
  tail call void @smgrdounlinkall(ptr noundef %.3, i32 noundef %.2, i1 noundef zeroext false) #8
  %wide.trip.count = zext nneg i32 %.2 to i64
  br label %41

40:                                               ; preds = %41
  tail call void @pfree(ptr noundef nonnull %.3) #8
  br label %._crit_edge.thread

41:                                               ; preds = %39, %41
  %indvars.iv = phi i64 [ 0, %39 ], [ %indvars.iv.next, %41 ]
  %42 = getelementptr inbounds nuw ptr, ptr %.3, i64 %indvars.iv
  %43 = load ptr, ptr %42, align 8
  tail call void @smgrclose(ptr noundef %43) #8
  %indvars.iv.next = add nuw nsw i64 %indvars.iv, 1
  %exitcond.not = icmp eq i64 %indvars.iv.next, %wide.trip.count
  br i1 %exitcond.not, label %40, label %41, !llvm.loop !16

._crit_edge.thread:                               ; preds = %1, %40, %._crit_edge
  ret void
}